target datalayout = "e-m:e-p270:32:32-p271:32:32-p272:64:64-i64:64-i128:128-f80:128-n8:16:32:64-S128"
target triple = "x86_64-pc-linux-gnu"

@max_alloc_size = internal global i64 2147483647, align 8

; Function Attrs: nounwind uwtable
define ptr @av_realloc(ptr noundef %0, i64 noundef %1) #0 {
  %3 = alloca ptr, align 8
  %4 = alloca ptr, align 8
  %5 = alloca i64, align 8
  %6 = alloca ptr, align 8
  %7 = alloca i64, align 8
  %8 = alloca i32, align 4
  store ptr %0, ptr %4, align 8, !tbaa !8
  store i64 %1, ptr %5, align 8, !tbaa !4
  call void @llvm.lifetime.start.p0(i64 8, ptr %6) #11
  %9 = load i64, ptr %5, align 8, !tbaa !4
  %10 = load atomic i64, ptr @max_alloc_size monotonic, align 8
  store i64 %10, ptr %7, align 8
  %11 = load i64, ptr %7, align 8, !tbaa !4
  %12 = icmp ugt i64 %9, %11
  br i1 %12, label %13, label %14

13:                                               ; preds = %2
  store ptr null, ptr %3, align 8
  store i32 1, ptr %8, align 4
  br label %25

14:                                               ; preds = %2
  %15 = load ptr, ptr %4, align 8, !tbaa !8
  %16 = load i64, ptr %5, align 8, !tbaa !4
  %17 = load i64, ptr %5, align 8, !tbaa !4
  %18 = icmp ne i64 %17, 0
  %19 = xor i1 %18, true
  %20 = zext i1 %19 to i32
  %21 = sext i32 %20 to i64
  %22 = add i64 %16, %21
  %23 = call ptr @realloc(ptr noundef %15, i64 noundef %22) #12
  store ptr %23, ptr %6, align 8, !tbaa !8
  %24 = load ptr, ptr %6, align 8, !tbaa !8
  store ptr %24, ptr %3, align 8
  store i32 1, ptr %8, align 4
  br label %25

25:                                               ; preds = %14, %13
  call void @llvm.lifetime.end.p0(i64 8, ptr %6) #11
  %26 = load ptr, ptr %3, align 8
  ret ptr %26
}

; Function Attrs: nounwind uwtable
define i32 @av_dynarray_add_nofree(ptr noundef %0, ptr noundef %1, ptr noundef %2) #0 {
  %4 = alloca i32, align 4
  %5 = alloca ptr, align 8
  %6 = alloca ptr, align 8
  %7 = alloca ptr, align 8
  %8 = alloca ptr, align 8
  %9 = alloca i64, align 8
  %10 = alloca ptr, align 8
  %11 = alloca i32, align 4
  store ptr %0, ptr %5, align 8, !tbaa !8
  store ptr %1, ptr %6, align 8, !tbaa !15
  store ptr %2, ptr %7, align 8, !tbaa !8
  call void @llvm.lifetime.start.p0(i64 8, ptr %8) #11
  %12 = load ptr, ptr %5, align 8, !tbaa !8
  call void @llvm.memcpy.p0.p0.i64(ptr align 8 %8, ptr align 1 %12, i64 8, i1 false)
  br label %13

13:                                               ; preds = %3
  call void @llvm.lifetime.start.p0(i64 8, ptr %9) #11
  %14 = load ptr, ptr %6, align 8, !tbaa !15
  %15 = load i32, ptr %14, align 4, !tbaa !17
  %16 = sext i32 %15 to i64
  store i64 %16, ptr %9, align 8, !tbaa !4
  %17 = load ptr, ptr %6, align 8, !tbaa !15
  %18 = load i32, ptr %17, align 4, !tbaa !17
  %19 = load ptr, ptr %6, align 8, !tbaa !15
  %20 = load i32, ptr %19, align 4, !tbaa !17
  %21 = sub nsw i32 %20, 1
  %22 = and i32 %18, %21
  %23 = icmp ne i32 %22, 0
  br i1 %23, label %51, label %24

24:                                               ; preds = %13
  %25 = load ptr, ptr %6, align 8, !tbaa !15
  %26 = load i32, ptr %25, align 4, !tbaa !17
  %27 = icmp ne i32 %26, 0
  br i1 %27, label %28, label %32

28:                                               ; preds = %24
  %29 = load ptr, ptr %6, align 8, !tbaa !15
  %30 = load i32, ptr %29, align 4, !tbaa !17
  %31 = shl i32 %30, 1
  br label %33

32:                                               ; preds = %24
  br label %33

33:                                               ; preds = %32, %28
  %34 = phi i32 [ %31, %28 ], [ 1, %32 ]
  %35 = sext i32 %34 to i64
  store i64 %35, ptr %9, align 8, !tbaa !4
  %36 = load i64, ptr %9, align 8, !tbaa !4
  %37 = icmp ugt i64 %36, 268435455
  br i1 %37, label %38, label %39

38:                                               ; preds = %33
  store i64 0, ptr %9, align 8, !tbaa !4
  br label %50

39:                                               ; preds = %33
  call void @llvm.lifetime.start.p0(i64 8, ptr %10) #11
  %40 = load ptr, ptr %8, align 8, !tbaa !19
  %41 = load i64, ptr %9, align 8, !tbaa !4
  %42 = mul i64 %41, 8
  %43 = call ptr @av_realloc(ptr noundef %40, i64 noundef %42)
  store ptr %43, ptr %10, align 8, !tbaa !8
  %44 = load ptr, ptr %10, align 8, !tbaa !8
  %45 = icmp ne ptr %44, null
  br i1 %45, label %47, label %46

46:                                               ; preds = %39
  store i64 0, ptr %9, align 8, !tbaa !4
  br label %49

47:                                               ; preds = %39
  %48 = load ptr, ptr %10, align 8, !tbaa !8
  store ptr %48, ptr %8, align 8, !tbaa !19
  br label %49

49:                                               ; preds = %47, %46
  call void @llvm.lifetime.end.p0(i64 8, ptr %10) #11
  br label %50

50:                                               ; preds = %49, %38
  br label %51

51:                                               ; preds = %50, %13
  %52 = load i64, ptr %9, align 8, !tbaa !4
  %53 = icmp ne i64 %52, 0
  br i1 %53, label %54, label %65

54:                                               ; preds = %51
  %55 = load ptr, ptr %7, align 8, !tbaa !8
  %56 = load ptr, ptr %8, align 8, !tbaa !19
  %57 = load ptr, ptr %6, align 8, !tbaa !15
  %58 = load i32, ptr %57, align 4, !tbaa !17
  %59 = sext i32 %58 to i64
  %60 = getelementptr inbounds ptr, ptr %56, i64 %59
  store ptr %55, ptr %60, align 8, !tbaa !8
  %61 = load ptr, ptr %5, align 8, !tbaa !8
  call void @llvm.memcpy.p0.p0.i64(ptr align 1 %61, ptr align 8 %8, i64 8, i1 false)
  %62 = load ptr, ptr %6, align 8, !tbaa !15
  %63 = load i32, ptr %62, align 4, !tbaa !17
  %64 = add nsw i32 %63, 1
  store i32 %64, ptr %62, align 4, !tbaa !17
  br label %66

65:                                               ; preds = %51
  store i32 -12, ptr %4, align 4
  store i32 1, ptr %11, align 4
  br label %67

66:                                               ; preds = %54
  store i32 0, ptr %11, align 4
  br label %67

67:                                               ; preds = %66, %65
  call void @llvm.lifetime.end.p0(i64 8, ptr %9) #11
  %68 = load i32, ptr %11, align 4
  switch i32 %68, label %72 [
    i32 0, label %69
  ]

69:                                               ; preds = %67
  br label %70

70:                                               ; preds = %69
  br label %71

71:                                               ; preds = %70
  store i32 0, ptr %4, align 4
  store i32 1, ptr %11, align 4
  br label %72

72:                                               ; preds = %71, %67
  call void @llvm.lifetime.end.p0(i64 8, ptr %8) #11
  %73 = load i32, ptr %4, align 4
  ret i32 %73
}