; Function Attrs: mustprogress nounwind willreturn uwtable
define range(i32 -12, 1) i32 @av_dynarray_add_nofree(ptr noundef captures(none) %0, ptr noundef captures(none) %1, ptr noundef %2) local_unnamed_addr #4 {
  %.0.copyload = load ptr, ptr %0, align 1
  %4 = load i32, ptr %1, align 4, !tbaa !9
  %5 = sext i32 %4 to i64
  %6 = tail call range(i32 0, 33) i32 @llvm.ctpop.i32(i32 %4)
  %.not = icmp samesign ult i32 %6, 2
  br i1 %.not, label %7, label %17

7:                                                ; preds = %3
  %.not27 = icmp eq i32 %4, 0
  %8 = shl i32 %4, 1
  %narrow = select i1 %.not27, i32 1, i32 %8
  %9 = sext i32 %narrow to i64
  %10 = icmp ugt i32 %narrow, 268435455
  br i1 %10, label %.thread, label %11

11:                                               ; preds = %7
  %12 = shl nuw nsw i64 %9, 3
  %13 = load atomic i64, ptr @max_alloc_size monotonic, align 8
  %14 = icmp ugt i64 %12, %13
  br i1 %14, label %.thread, label %av_realloc.exit

av_realloc.exit:                                  ; preds = %11
  %15 = tail call i64 @llvm.umax.i64(i64 %12, i64 1)
  %16 = tail call ptr @realloc(ptr noundef %.0.copyload, i64 noundef %15) #22
  %.not28 = icmp eq ptr %16, null
  br i1 %.not28, label %.thread, label %17

17:                                               ; preds = %av_realloc.exit, %3
  %.022 = phi ptr [ %.0.copyload, %3 ], [ %16, %av_realloc.exit ]
  %.020 = phi i64 [ %5, %3 ], [ %9, %av_realloc.exit ]
  %.not29.not = icmp eq i64 %.020, 0
  br i1 %.not29.not, label %.thread, label %18

18:                                               ; preds = %17
  %19 = load i32, ptr %1, align 4, !tbaa !9
  %20 = sext i32 %19 to i64
  %21 = getelementptr inbounds ptr, ptr %.022, i64 %20
  store ptr %2, ptr %21, align 8, !tbaa !4
  store ptr %.022, ptr %0, align 1
  %22 = load i32, ptr %1, align 4, !tbaa !9
  %23 = add nsw i32 %22, 1
  store i32 %23, ptr %1, align 4, !tbaa !9
  br label %.thread

.thread:                                          ; preds = %11, %av_realloc.exit, %7, %17, %18
  %24 = phi i32 [ 0, %18 ], [ -12, %17 ], [ -12, %7 ], [ -12, %av_realloc.exit ], [ -12, %11 ]
  ret i32 %24
}